; ModuleID = '61/743.c'
source_filename = "61/743.c"
target datalayout = "e-m:e-p270:32:32-p271:32:32-p272:64:64-i64:64-f80:128-n8:16:32:64-S128"
target triple = "x86_64-pc-linux-gnu"

@.str = private unnamed_addr constant [3 x i8] c"%d\00", align 1
@.str.1 = private unnamed_addr constant [4 x i8] c"%d\0A\00", align 1

; Function Attrs: noinline nounwind uwtable
define dso_local i32 @main() #0 {
  %1 = alloca i32, align 4
  %2 = alloca i32, align 4
  %3 = alloca i32, align 4
  %4 = alloca i32, align 4
  %5 = alloca i32, align 4
  %6 = alloca [20 x i32], align 16
  %7 = alloca [20 x i32], align 16
  %8 = alloca i32, align 4
  %9 = alloca i32, align 4
  %10 = alloca i32, align 4
  store i32 0, i32* %1, align 4
  store i32 0, i32* %3, align 4
  store i32 1, i32* %4, align 4
  store i32 1, i32* %5, align 4
  %11 = call i32 (i8*, ...) @__isoc99_scanf(i8* getelementptr inbounds ([3 x i8], [3 x i8]* @.str, i64 0, i64 0), i32* %2)
  store i32 0, i32* %8, align 4
  br label %12

12:                                               ; preds = %51, %0
  %13 = load i32, i32* %8, align 4
  %14 = load i32, i32* %2, align 4
  %15 = icmp slt i32 %13, %14
  br i1 %15, label %16, label %54

16:                                               ; preds = %12
  %17 = load i32, i32* %8, align 4
  %18 = sext i32 %17 to i64
  %19 = getelementptr inbounds [20 x i32], [20 x i32]* %6, i64 0, i64 %18
  %20 = call i32 (i8*, ...) @__isoc99_scanf(i8* getelementptr inbounds ([3 x i8], [3 x i8]* @.str, i64 0, i64 0), i32* %19)
  %21 = load i32, i32* %8, align 4
  %22 = sext i32 %21 to i64
  %23 = getelementptr inbounds [20 x i32], [20 x i32]* %6, i64 0, i64 %22
  %24 = load i32, i32* %23, align 4
  %25 = icmp sgt i32 %24, 2
  br i1 %25, label %26, label %45

26:                                               ; preds = %16
  store i32 1, i32* %9, align 4
  br label %27

27:                                               ; preds = %41, %26
  %28 = load i32, i32* %9, align 4
  %29 = load i32, i32* %8, align 4
  %30 = sext i32 %29 to i64
  %31 = getelementptr inbounds [20 x i32], [20 x i32]* %6, i64 0, i64 %30
  %32 = load i32, i32* %31, align 4
  %33 = sub nsw i32 %32, 1
  %34 = icmp slt i32 %28, %33
  br i1 %34, label %35, label %44

35:                                               ; preds = %27
  %36 = load i32, i32* %4, align 4
  %37 = load i32, i32* %5, align 4
  %38 = add nsw i32 %36, %37
  store i32 %38, i32* %3, align 4
  %39 = load i32, i32* %5, align 4
  store i32 %39, i32* %4, align 4
  %40 = load i32, i32* %3, align 4
  store i32 %40, i32* %5, align 4
  br label %41

41:                                               ; preds = %35
  %42 = load i32, i32* %9, align 4
  %43 = add nsw i32 %42, 1
  store i32 %43, i32* %9, align 4
  br label %27

44:                                               ; preds = %27
  br label %46

45:                                               ; preds = %16
  store i32 1, i32* %5, align 4
  br label %46

46:                                               ; preds = %45, %44
  %47 = load i32, i32* %5, align 4
  %48 = load i32, i32* %8, align 4
  %49 = sext i32 %48 to i64
  %50 = getelementptr inbounds [20 x i32], [20 x i32]* %7, i64 0, i64 %49
  store i32 %47, i32* %50, align 4
  store i32 1, i32* %5, align 4
  store i32 1, i32* %4, align 4
  br label %51

51:                                               ; preds = %46
  %52 = load i32, i32* %8, align 4
  %53 = add nsw i32 %52, 1
  store i32 %53, i32* %8, align 4
  br label %12

54:                                               ; preds = %12
  store i32 0, i32* %10, align 4
  br label %55

55:                                               ; preds = %65, %54
  %56 = load i32, i32* %10, align 4
  %57 = load i32, i32* %2, align 4
  %58 = icmp slt i32 %56, %57
  br i1 %58, label %59, label %68

59:                                               ; preds = %55
  %60 = load i32, i32* %10, align 4
  %61 = sext i32 %60 to i64
  %62 = getelementptr inbounds [20 x i32], [20 x i32]* %7, i64 0, i64 %61
  %63 = load i32, i32* %62, align 4
  %64 = call i32 (i8*, ...) @printf(i8* getelementptr inbounds ([4 x i8], [4 x i8]* @.str.1, i64 0, i64 0), i32 %63)
  br label %65

65:                                               ; preds = %59
  %66 = load i32, i32* %10, align 4
  %67 = add nsw i32 %66, 1
  store i32 %67, i32* %10, align 4
  br label %55

68:                                               ; preds = %55
  ret i32 0
}

declare dso_local i32 @__isoc99_scanf(i8*, ...) #1

declare dso_local i32 @printf(i8*, ...) #1


!llvm.module.flags = !{!0}
!llvm.ident = !{!1}

!0 = !{i32 1, !"wchar_size", i32 4}
!1 = !{!"clang version 10.0.0-4ubuntu1 "}
